target datalayout = "e-m:e-p270:32:32-p271:32:32-p272:64:64-i64:64-i128:128-f80:128-n8:16:32:64-S128"
target triple = "x86_64-pc-linux-gnu"

%struct.ident_t = type { i32, i32, i32, i32, ptr }
%"class.LightGBM::Tree" = type { ptr, i32, i32, %"class.std::vector", %"class.std::vector", %"class.std::vector", %"class.std::vector", %"class.std::vector.0", %"class.std::vector.5", i32, %"class.std::vector", %"class.std::vector.0", %"class.std::vector", %"class.std::vector.0", %"class.std::vector.10", %"class.std::vector.15", %"class.std::vector", %"class.std::vector.5", %"class.std::vector.5", %"class.std::vector", %"class.std::vector.5", %"class.std::vector.5", %"class.std::vector", %"class.std::vector", i8, %"class.std::vector.20", double, i32, i8, %"class.std::vector.25", %"class.std::vector.5", %"class.std::vector.20", %"class.std::vector.20" }
%"class.std::vector.0" = type { %"struct.std::_Vector_base.1" }
%"struct.std::_Vector_base.1" = type { %"struct.std::_Vector_base<unsigned int, std::allocator<unsigned int>>::_Vector_impl" }
%"struct.std::_Vector_base<unsigned int, std::allocator<unsigned int>>::_Vector_impl" = type { %"struct.std::_Vector_base<unsigned int, std::allocator<unsigned int>>::_Vector_impl_data" }
%"struct.std::_Vector_base<unsigned int, std::allocator<unsigned int>>::_Vector_impl_data" = type { ptr, ptr, ptr }
%"class.std::vector.10" = type { %"struct.std::_Vector_base.11" }
%"struct.std::_Vector_base.11" = type { %"struct.std::_Vector_base<signed char, std::allocator<signed char>>::_Vector_impl" }
%"struct.std::_Vector_base<signed char, std::allocator<signed char>>::_Vector_impl" = type { %"struct.std::_Vector_base<signed char, std::allocator<signed char>>::_Vector_impl_data" }
%"struct.std::_Vector_base<signed char, std::allocator<signed char>>::_Vector_impl_data" = type { ptr, ptr, ptr }
%"class.std::vector.15" = type { %"struct.std::_Vector_base.16" }
%"struct.std::_Vector_base.16" = type { %"struct.std::_Vector_base<float, std::allocator<float>>::_Vector_impl" }
%"struct.std::_Vector_base<float, std::allocator<float>>::_Vector_impl" = type { %"struct.std::_Vector_base<float, std::allocator<float>>::_Vector_impl_data" }
%"struct.std::_Vector_base<float, std::allocator<float>>::_Vector_impl_data" = type { ptr, ptr, ptr }
%"class.std::vector" = type { %"struct.std::_Vector_base" }
%"struct.std::_Vector_base" = type { %"struct.std::_Vector_base<int, std::allocator<int>>::_Vector_impl" }
%"struct.std::_Vector_base<int, std::allocator<int>>::_Vector_impl" = type { %"struct.std::_Vector_base<int, std::allocator<int>>::_Vector_impl_data" }
%"struct.std::_Vector_base<int, std::allocator<int>>::_Vector_impl_data" = type { ptr, ptr, ptr }
%"class.std::vector.25" = type { %"struct.std::_Vector_base.26" }
%"struct.std::_Vector_base.26" = type { %"struct.std::_Vector_base<std::vector<double>, std::allocator<std::vector<double>>>::_Vector_impl" }
%"struct.std::_Vector_base<std::vector<double>, std::allocator<std::vector<double>>>::_Vector_impl" = type { %"struct.std::_Vector_base<std::vector<double>, std::allocator<std::vector<double>>>::_Vector_impl_data" }
%"struct.std::_Vector_base<std::vector<double>, std::allocator<std::vector<double>>>::_Vector_impl_data" = type { ptr, ptr, ptr }
%"class.std::vector.5" = type { %"struct.std::_Vector_base.6" }
%"struct.std::_Vector_base.6" = type { %"struct.std::_Vector_base<double, std::allocator<double>>::_Vector_impl" }
%"struct.std::_Vector_base<double, std::allocator<double>>::_Vector_impl" = type { %"struct.std::_Vector_base<double, std::allocator<double>>::_Vector_impl_data" }
%"struct.std::_Vector_base<double, std::allocator<double>>::_Vector_impl_data" = type { ptr, ptr, ptr }
%"class.std::vector.20" = type { %"struct.std::_Vector_base.21" }
%"struct.std::_Vector_base.21" = type { %"struct.std::_Vector_base<std::vector<int>, std::allocator<std::vector<int>>>::_Vector_impl" }
%"struct.std::_Vector_base<std::vector<int>, std::allocator<std::vector<int>>>::_Vector_impl" = type { %"struct.std::_Vector_base<std::vector<int>, std::allocator<std::vector<int>>>::_Vector_impl_data" }
%"struct.std::_Vector_base<std::vector<int>, std::allocator<std::vector<int>>>::_Vector_impl_data" = type { ptr, ptr, ptr }

@1 = private unnamed_addr constant %struct.ident_t { i32 0, i32 514, i32 0, i32 22, ptr @0 }, align 8

; Function Attrs: mustprogress nounwind uwtable
define linkonce_odr noundef nonnull align 8 dereferenceable(8) ptr @_ZNKSt6vectorIdSaIdEEixEm(ptr noundef nonnull align 8 dereferenceable(24) %0, i64 noundef %1) #0 comdat align 2 {
  %3 = alloca ptr, align 8
  %4 = alloca i64, align 8
  store ptr %0, ptr %3, align 8, !tbaa !141
  store i64 %1, ptr %4, align 8, !tbaa !132
  %5 = load ptr, ptr %3, align 8
  %6 = getelementptr inbounds nuw %"struct.std::_Vector_base.6", ptr %5, i32 0, i32 0
  %7 = getelementptr inbounds nuw %"struct.std::_Vector_base<double, std::allocator<double>>::_Vector_impl_data", ptr %6, i32 0, i32 0
  %8 = load ptr, ptr %7, align 8, !tbaa !152
  %9 = load i64, ptr %4, align 8, !tbaa !132
  %10 = getelementptr inbounds nuw double, ptr %8, i64 %9
  ret ptr %10
}

; Function Attrs: noinline norecurse nounwind uwtable
define internal void @_ZNK8LightGBM4Tree20AddPredictionToScoreEPKNS_7DatasetEPKiiPd.omp_outlined(ptr noalias noundef %0, ptr noalias noundef %1, ptr noundef nonnull align 4 dereferenceable(4) %2, ptr noundef nonnull align 8 dereferenceable(8) %3, ptr noundef nonnull align 8 dereferenceable(8) %4, ptr noundef %5) #17 {
  %7 = alloca ptr, align 8
  %8 = alloca ptr, align 8
  %9 = alloca ptr, align 8
  %10 = alloca ptr, align 8
  %11 = alloca ptr, align 8
  %12 = alloca ptr, align 8
  %13 = alloca i32, align 4
  %14 = alloca i32, align 4
  %15 = alloca i32, align 4
  %16 = alloca i32, align 4
  %17 = alloca i32, align 4
  %18 = alloca i32, align 4
  %19 = alloca i32, align 4
  %20 = alloca i32, align 4
  %21 = alloca i32, align 4
  store ptr %0, ptr %7, align 8, !tbaa !97
  store ptr %1, ptr %8, align 8, !tbaa !97
  store ptr %2, ptr %9, align 8, !tbaa !97
  store ptr %3, ptr %10, align 8, !tbaa !230
  store ptr %4, ptr %11, align 8, !tbaa !221
  store ptr %5, ptr %12, align 8, !tbaa !4
  %22 = load ptr, ptr %9, align 8, !tbaa !97
  %23 = load ptr, ptr %10, align 8, !tbaa !230
  %24 = load ptr, ptr %11, align 8, !tbaa !221
  %25 = load ptr, ptr %12, align 8, !tbaa !4
  call void @llvm.lifetime.start.p0(i64 4, ptr %13) #7
  call void @llvm.lifetime.start.p0(i64 4, ptr %14) #7
  %26 = load i32, ptr %22, align 4, !tbaa !13
  store i32 %26, ptr %14, align 4, !tbaa !13
  call void @llvm.lifetime.start.p0(i64 4, ptr %15) #7
  %27 = load i32, ptr %14, align 4, !tbaa !13
  %28 = sub nsw i32 %27, 0
  %29 = sdiv i32 %28, 1
  %30 = sub nsw i32 %29, 1
  store i32 %30, ptr %15, align 4, !tbaa !13
  call void @llvm.lifetime.start.p0(i64 4, ptr %16) #7
  store i32 0, ptr %16, align 4, !tbaa !13
  call void @llvm.lifetime.end.p0(i64 4, ptr %16) #7
  %31 = load i32, ptr %14, align 4, !tbaa !13
  %32 = icmp slt i32 0, %31
  br i1 %32, label %33, label %90

33:                                               ; preds = %6
  call void @llvm.lifetime.start.p0(i64 4, ptr %17) #7
  store i32 0, ptr %17, align 4, !tbaa !13
  call void @llvm.lifetime.start.p0(i64 4, ptr %18) #7
  %34 = load i32, ptr %15, align 4, !tbaa !13
  store i32 %34, ptr %18, align 4, !tbaa !13
  call void @llvm.lifetime.start.p0(i64 4, ptr %19) #7
  store i32 1, ptr %19, align 4, !tbaa !13
  call void @llvm.lifetime.start.p0(i64 4, ptr %20) #7
  store i32 0, ptr %20, align 4, !tbaa !13
  call void @llvm.lifetime.start.p0(i64 4, ptr %21) #7
  %35 = load ptr, ptr %7, align 8
  %36 = load i32, ptr %35, align 4, !tbaa !13
  call void @__kmpc_for_static_init_4(ptr @1, i32 %36, i32 33, ptr %20, ptr %17, ptr %18, ptr %19, i32 1, i32 512)
  br label %37

37:                                               ; preds = %80, %33
  %38 = load i32, ptr %18, align 4, !tbaa !13
  %39 = load i32, ptr %15, align 4, !tbaa !13
  %40 = icmp sgt i32 %38, %39
  br i1 %40, label %41, label %43

41:                                               ; preds = %37
  %42 = load i32, ptr %15, align 4, !tbaa !13
  br label %45

43:                                               ; preds = %37
  %44 = load i32, ptr %18, align 4, !tbaa !13
  br label %45

45:                                               ; preds = %43, %41
  %46 = phi i32 [ %42, %41 ], [ %44, %43 ]
  store i32 %46, ptr %18, align 4, !tbaa !13
  %47 = load i32, ptr %17, align 4, !tbaa !13
  store i32 %47, ptr %13, align 4, !tbaa !13
  %48 = load i32, ptr %13, align 4, !tbaa !13
  %49 = load i32, ptr %18, align 4, !tbaa !13
  %50 = icmp sle i32 %48, %49
  br i1 %50, label %52, label %51

51:                                               ; preds = %45
  br label %87

52:                                               ; preds = %45
  br label %53

53:                                               ; preds = %76, %52
  %54 = load i32, ptr %13, align 4, !tbaa !13
  %55 = load i32, ptr %18, align 4, !tbaa !13
  %56 = icmp sle i32 %54, %55
  br i1 %56, label %58, label %57

57:                                               ; preds = %53
  br label %79

58:                                               ; preds = %53
  %59 = load i32, ptr %13, align 4, !tbaa !13
  %60 = mul nsw i32 %59, 1
  %61 = add nsw i32 0, %60
  store i32 %61, ptr %21, align 4, !tbaa !13
  %62 = getelementptr inbounds nuw %"class.LightGBM::Tree", ptr %25, i32 0, i32 17
  %63 = call noundef nonnull align 8 dereferenceable(8) ptr @_ZNKSt6vectorIdSaIdEEixEm(ptr noundef nonnull align 8 dereferenceable(24) %62, i64 noundef 0) #7
  %64 = load double, ptr %63, align 8, !tbaa !57
  %65 = load ptr, ptr %23, align 8, !tbaa !15
  %66 = load ptr, ptr %24, align 8, !tbaa !97
  %67 = load i32, ptr %21, align 4, !tbaa !13
  %68 = sext i32 %67 to i64
  %69 = getelementptr inbounds i32, ptr %66, i64 %68
  %70 = load i32, ptr %69, align 4, !tbaa !13
  %71 = sext i32 %70 to i64
  %72 = getelementptr inbounds double, ptr %65, i64 %71
  %73 = load double, ptr %72, align 8, !tbaa !57
  %74 = fadd double %73, %64
  store double %74, ptr %72, align 8, !tbaa !57
  br label %75

75:                                               ; preds = %58
  br label %76

76:                                               ; preds = %75
  %77 = load i32, ptr %13, align 4, !tbaa !13
  %78 = add nsw i32 %77, 1
  store i32 %78, ptr %13, align 4, !tbaa !13
  br label %53

79:                                               ; preds = %57
  br label %80

80:                                               ; preds = %79
  %81 = load i32, ptr %17, align 4, !tbaa !13
  %82 = load i32, ptr %19, align 4, !tbaa !13
  %83 = add nsw i32 %81, %82
  store i32 %83, ptr %17, align 4, !tbaa !13
  %84 = load i32, ptr %18, align 4, !tbaa !13
  %85 = load i32, ptr %19, align 4, !tbaa !13
  %86 = add nsw i32 %84, %85
  store i32 %86, ptr %18, align 4, !tbaa !13
  br label %37

87:                                               ; preds = %51
  %88 = load ptr, ptr %7, align 8
  %89 = load i32, ptr %88, align 4, !tbaa !13
  call void @__kmpc_for_static_fini(ptr @1, i32 %89)
  call void @llvm.lifetime.end.p0(i64 4, ptr %21) #7
  call void @llvm.lifetime.end.p0(i64 4, ptr %20) #7
  call void @llvm.lifetime.end.p0(i64 4, ptr %19) #7
  call void @llvm.lifetime.end.p0(i64 4, ptr %18) #7
  call void @llvm.lifetime.end.p0(i64 4, ptr %17) #7
  br label %90

90:                                               ; preds = %87, %6
  call void @llvm.lifetime.end.p0(i64 4, ptr %15) #7
  call void @llvm.lifetime.end.p0(i64 4, ptr %14) #7
  call void @llvm.lifetime.end.p0(i64 4, ptr %13) #7
  ret void
}