; Function Attrs: noinline norecurse nounwind uwtable
define internal void @_ZNK8LightGBM4Tree20AddPredictionToScoreEPKNS_7DatasetEPKiiPd.omp_outlined(ptr noalias noundef readonly captures(none) %0, ptr noalias readnone captures(none) %1, ptr noundef nonnull readonly align 4 captures(none) dereferenceable(4) %2, ptr noundef nonnull readonly align 8 captures(none) dereferenceable(8) %3, ptr noundef nonnull readonly align 8 captures(none) dereferenceable(8) %4, ptr noundef readonly captures(none) %5) #15 {
  %7 = alloca i32, align 4
  %8 = alloca i32, align 4
  %9 = alloca i32, align 4
  %10 = alloca i32, align 4
  %11 = load i32, ptr %2, align 4, !tbaa !36
  %12 = add nsw i32 %11, -1
  %13 = icmp sgt i32 %11, 0
  br i1 %13, label %14, label %37

14:                                               ; preds = %6
  call void @llvm.lifetime.start.p0(i64 4, ptr nonnull %7) #16
  store i32 0, ptr %7, align 4, !tbaa !36
  call void @llvm.lifetime.start.p0(i64 4, ptr nonnull %8) #16
  store i32 %12, ptr %8, align 4, !tbaa !36
  call void @llvm.lifetime.start.p0(i64 4, ptr nonnull %9) #16
  store i32 1, ptr %9, align 4, !tbaa !36
  call void @llvm.lifetime.start.p0(i64 4, ptr nonnull %10) #16
  store i32 0, ptr %10, align 4, !tbaa !36
  %15 = load i32, ptr %0, align 4, !tbaa !36
  call void @__kmpc_for_static_init_4(ptr nonnull @1, i32 %15, i32 33, ptr nonnull %10, ptr nonnull %7, ptr nonnull %8, ptr nonnull %9, i32 1, i32 512)
  %.promoted = load i32, ptr %8, align 4, !tbaa !36
  %.promoted18 = load i32, ptr %7, align 4, !tbaa !36
  %16 = call i32 @llvm.smin.i32(i32 %.promoted, i32 %12)
  store i32 %16, ptr %8, align 4, !tbaa !36
  %.not19 = icmp sgt i32 %.promoted18, %16
  br i1 %.not19, label %._crit_edge, label %.preheader.lr.ph

.preheader.lr.ph:                                 ; preds = %14
  %17 = getelementptr inbounds nuw i8, ptr %5, i64 336
  %18 = load ptr, ptr %17, align 8, !tbaa !18
  %19 = load ptr, ptr %3, align 8, !tbaa !38
  %20 = load ptr, ptr %4, align 8, !tbaa !125
  %21 = load i32, ptr %9, align 4, !tbaa !36
  %22 = sext i32 %.promoted18 to i64
  %23 = sext i32 %21 to i64
  br label %.preheader

.preheader:                                       ; preds = %.preheader.lr.ph, %34
  %indvars.iv = phi i64 [ %22, %.preheader.lr.ph ], [ %indvars.iv.next, %34 ]
  %24 = phi i32 [ %16, %.preheader.lr.ph ], [ %36, %34 ]
  %25 = sext i32 %24 to i64
  br label %26

26:                                               ; preds = %.preheader, %26
  %indvars.iv20 = phi i64 [ %indvars.iv, %.preheader ], [ %indvars.iv.next21, %26 ]
  %27 = load double, ptr %18, align 8, !tbaa !66
  %28 = getelementptr inbounds i32, ptr %20, i64 %indvars.iv20
  %29 = load i32, ptr %28, align 4, !tbaa !36
  %30 = sext i32 %29 to i64
  %31 = getelementptr inbounds double, ptr %19, i64 %30
  %32 = load double, ptr %31, align 8, !tbaa !66
  %33 = fadd double %27, %32
  store double %33, ptr %31, align 8, !tbaa !66
  %indvars.iv.next21 = add nsw i64 %indvars.iv20, 1
  %.not16.not = icmp slt i64 %indvars.iv20, %25
  br i1 %.not16.not, label %26, label %34

34:                                               ; preds = %26
  %indvars.iv.next = add i64 %indvars.iv, %23
  %indvars = trunc i64 %indvars.iv.next to i32
  store i32 %indvars, ptr %7, align 4, !tbaa !36
  %35 = add nsw i32 %21, %24
  %36 = call i32 @llvm.smin.i32(i32 %35, i32 %12)
  store i32 %36, ptr %8, align 4, !tbaa !36
  %.not = icmp slt i32 %36, %indvars
  br i1 %.not, label %._crit_edge, label %.preheader

._crit_edge:                                      ; preds = %34, %14
  call void @__kmpc_for_static_fini(ptr nonnull @1, i32 %15)
  call void @llvm.lifetime.end.p0(i64 4, ptr nonnull %10) #16
  call void @llvm.lifetime.end.p0(i64 4, ptr nonnull %9) #16
  call void @llvm.lifetime.end.p0(i64 4, ptr nonnull %8) #16
  call void @llvm.lifetime.end.p0(i64 4, ptr nonnull %7) #16
  br label %37

37:                                               ; preds = %._crit_edge, %6
  ret void
}